target datalayout = "e-m:e-p270:32:32-p271:32:32-p272:64:64-i64:64-i128:128-f80:128-n8:16:32:64-S128"
target triple = "x86_64-pc-linux-gnu"

%"class.google::LogMessage::LogStream" = type { %"class.std::basic_ostream.base", %"class.google::base_logging::LogStreamBuf", i64, ptr, %"class.std::basic_ios" }
%"class.std::basic_ostream.base" = type { ptr }
%"class.google::base_logging::LogStreamBuf" = type { %"class.std::basic_streambuf" }
%"class.std::basic_streambuf" = type { ptr, ptr, ptr, ptr, ptr, ptr, ptr, %"class.std::locale" }
%"class.std::locale" = type { ptr }
%"class.std::basic_ios" = type { %"class.std::ios_base", ptr, i8, i8, ptr, ptr, ptr, ptr }
%"class.std::ios_base" = type { ptr, i64, i64, i32, i32, i32, ptr, %"struct.std::ios_base::_Words", [8 x %"struct.std::ios_base::_Words"], i32, ptr, %"class.std::locale" }
%"struct.std::ios_base::_Words" = type { ptr, i64 }
%"class.google::NullStream" = type <{ %"class.google::LogMessage::LogStream.base", [3 x i8], [5 x i8], %"class.std::basic_ios" }>
%"class.google::LogMessage::LogStream.base" = type { %"class.std::basic_ostream.base", %"class.google::base_logging::LogStreamBuf", i64, ptr }

@_ZTVSt15basic_streambufIcSt11char_traitsIcEE = external unnamed_addr constant { [16 x ptr] }, align 8

; Function Attrs: mustprogress nounwind uwtable
define available_externally void @_ZNSt15basic_streambufIcSt11char_traitsIcEE4setpEPcS3_(ptr noundef nonnull align 8 dereferenceable(64) %0, ptr noundef %1, ptr noundef %2) #2 align 2 {
  %4 = alloca ptr, align 8
  %5 = alloca ptr, align 8
  %6 = alloca ptr, align 8
  store ptr %0, ptr %4, align 8, !tbaa !27
  store ptr %1, ptr %5, align 8, !tbaa !9
  store ptr %2, ptr %6, align 8, !tbaa !9
  %7 = load ptr, ptr %4, align 8
  %8 = load ptr, ptr %5, align 8, !tbaa !9
  %9 = getelementptr inbounds nuw %"class.std::basic_streambuf", ptr %7, i32 0, i32 5
  store ptr %8, ptr %9, align 8, !tbaa !289
  %10 = getelementptr inbounds nuw %"class.std::basic_streambuf", ptr %7, i32 0, i32 4
  store ptr %8, ptr %10, align 8, !tbaa !288
  %11 = load ptr, ptr %6, align 8, !tbaa !9
  %12 = getelementptr inbounds nuw %"class.std::basic_streambuf", ptr %7, i32 0, i32 6
  store ptr %11, ptr %12, align 8, !tbaa !290
  ret void
}

; Function Attrs: mustprogress nounwind uwtable
define available_externally void @_ZNSt15basic_streambufIcSt11char_traitsIcEEC2Ev(ptr noundef nonnull align 8 dereferenceable(64) %0) unnamed_addr #2 align 2 {
  %2 = alloca ptr, align 8
  store ptr %0, ptr %2, align 8, !tbaa !27
  %3 = load ptr, ptr %2, align 8
  store ptr getelementptr inbounds inrange(-16, 112) ({ [16 x ptr] }, ptr @_ZTVSt15basic_streambufIcSt11char_traitsIcEE, i32 0, i32 0, i32 2), ptr %3, align 8, !tbaa !15
  %4 = getelementptr inbounds nuw %"class.std::basic_streambuf", ptr %3, i32 0, i32 1
  store ptr null, ptr %4, align 8, !tbaa !285
  %5 = getelementptr inbounds nuw %"class.std::basic_streambuf", ptr %3, i32 0, i32 2
  store ptr null, ptr %5, align 8, !tbaa !286
  %6 = getelementptr inbounds nuw %"class.std::basic_streambuf", ptr %3, i32 0, i32 3
  store ptr null, ptr %6, align 8, !tbaa !287
  %7 = getelementptr inbounds nuw %"class.std::basic_streambuf", ptr %3, i32 0, i32 4
  store ptr null, ptr %7, align 8, !tbaa !288
  %8 = getelementptr inbounds nuw %"class.std::basic_streambuf", ptr %3, i32 0, i32 5
  store ptr null, ptr %8, align 8, !tbaa !289
  %9 = getelementptr inbounds nuw %"class.std::basic_streambuf", ptr %3, i32 0, i32 6
  store ptr null, ptr %9, align 8, !tbaa !290
  %10 = getelementptr inbounds nuw %"class.std::basic_streambuf", ptr %3, i32 0, i32 7
  call void @_ZNSt6localeC1Ev(ptr noundef nonnull align 8 dereferenceable(8) %10) #5
  ret void
}

; Function Attrs: mustprogress nounwind uwtable
define available_externally void @_ZNSoD2Ev(ptr noundef nonnull align 8 dereferenceable(8) %0, ptr noundef %1) unnamed_addr #2 align 2 {
  %3 = alloca ptr, align 8
  %4 = alloca ptr, align 8
  store ptr %0, ptr %3, align 8, !tbaa !25
  store ptr %1, ptr %4, align 8, !tbaa !8
  ret void
}

; Function Attrs: mustprogress nounwind uwtable
define available_externally void @_ZNSt15basic_streambufIcSt11char_traitsIcEED2Ev(ptr noundef nonnull align 8 dereferenceable(64) %0) unnamed_addr #2 align 2 {
  %2 = alloca ptr, align 8
  store ptr %0, ptr %2, align 8, !tbaa !27
  %3 = load ptr, ptr %2, align 8
  store ptr getelementptr inbounds inrange(-16, 112) ({ [16 x ptr] }, ptr @_ZTVSt15basic_streambufIcSt11char_traitsIcEE, i32 0, i32 0, i32 2), ptr %3, align 8, !tbaa !15
  %4 = getelementptr inbounds nuw %"class.std::basic_streambuf", ptr %3, i32 0, i32 7
  call void @_ZNSt6localeD1Ev(ptr noundef nonnull align 8 dereferenceable(8) %4) #5
  ret void
}

; Function Attrs: mustprogress uwtable
define linkonce_odr hidden void @_ZN6google12base_logging12LogStreamBufC2EPci(ptr noundef nonnull align 8 dereferenceable(64) %0, ptr noundef %1, i32 noundef %2) unnamed_addr #0 comdat align 2 personality ptr @__gxx_personality_v0 {
  %4 = alloca ptr, align 8
  %5 = alloca ptr, align 8
  %6 = alloca i32, align 4
  %7 = alloca ptr, align 8
  %8 = alloca i32, align 4
  store ptr %0, ptr %4, align 8, !tbaa !29
  store ptr %1, ptr %5, align 8, !tbaa !9
  store i32 %2, ptr %6, align 4, !tbaa !11
  %9 = load ptr, ptr %4, align 8
  call void @_ZNSt15basic_streambufIcSt11char_traitsIcEEC2Ev(ptr noundef nonnull align 8 dereferenceable(64) %9)
  store ptr getelementptr inbounds inrange(-16, 112) ({ [16 x ptr] }, ptr @_ZTVN6google12base_logging12LogStreamBufE, i32 0, i32 0, i32 2), ptr %9, align 8, !tbaa !15
  %10 = load ptr, ptr %5, align 8, !tbaa !9
  %11 = load ptr, ptr %5, align 8, !tbaa !9
  %12 = load i32, ptr %6, align 4, !tbaa !11
  %13 = sext i32 %12 to i64
  %14 = getelementptr inbounds i8, ptr %11, i64 %13
  %15 = getelementptr inbounds i8, ptr %14, i64 -2
  invoke void @_ZNSt15basic_streambufIcSt11char_traitsIcEE4setpEPcS3_(ptr noundef nonnull align 8 dereferenceable(64) %9, ptr noundef %10, ptr noundef %15)
          to label %16 unwind label %17

16:                                               ; preds = %3
  ret void

17:                                               ; preds = %3
  %18 = landingpad { ptr, i32 }
          cleanup
  %19 = extractvalue { ptr, i32 } %18, 0
  store ptr %19, ptr %7, align 8
  %20 = extractvalue { ptr, i32 } %18, 1
  store i32 %20, ptr %8, align 4
  call void @_ZNSt15basic_streambufIcSt11char_traitsIcEED2Ev(ptr noundef nonnull align 8 dereferenceable(64) %9) #5
  br label %21

21:                                               ; preds = %17
  %22 = load ptr, ptr %7, align 8
  %23 = load i32, ptr %8, align 4
  %24 = insertvalue { ptr, i32 } poison, ptr %22, 0
  %25 = insertvalue { ptr, i32 } %24, i32 %23, 1
  resume { ptr, i32 } %25
}

; Function Attrs: mustprogress uwtable
define available_externally void @_ZNSoC2EPSt15basic_streambufIcSt11char_traitsIcEE(ptr noundef nonnull align 8 dereferenceable(8) %0, ptr noundef %1, ptr noundef %2) unnamed_addr #0 align 2 {
  %4 = alloca ptr, align 8
  %5 = alloca ptr, align 8
  %6 = alloca ptr, align 8
  store ptr %0, ptr %4, align 8, !tbaa !25
  store ptr %1, ptr %5, align 8, !tbaa !8
  store ptr %2, ptr %6, align 8, !tbaa !27
  %7 = load ptr, ptr %4, align 8
  %8 = load ptr, ptr %5, align 8
  %9 = load ptr, ptr %8, align 8
  store ptr %9, ptr %7, align 8, !tbaa !15
  %10 = getelementptr inbounds ptr, ptr %8, i64 1
  %11 = load ptr, ptr %10, align 8
  %12 = load ptr, ptr %7, align 8, !tbaa !15
  %13 = getelementptr i8, ptr %12, i64 -24
  %14 = load i64, ptr %13, align 8
  %15 = getelementptr inbounds i8, ptr %7, i64 %14
  store ptr %11, ptr %15, align 8, !tbaa !15
  %16 = load ptr, ptr %7, align 8, !tbaa !15
  %17 = getelementptr i8, ptr %16, i64 -24
  %18 = load i64, ptr %17, align 8
  %19 = getelementptr inbounds i8, ptr %7, i64 %18
  %20 = load ptr, ptr %6, align 8, !tbaa !27
  call void @_ZNSt9basic_iosIcSt11char_traitsIcEE4initEPSt15basic_streambufIcS1_E(ptr noundef nonnull align 8 dereferenceable(264) %19, ptr noundef %20)
  ret void
}

; Function Attrs: mustprogress uwtable
define linkonce_odr hidden void @_ZN6google10LogMessage9LogStreamC2EPcil(ptr noundef nonnull align 8 dereferenceable(88) %0, ptr noundef %1, ptr noundef %2, i32 noundef %3, i64 noundef %4) unnamed_addr #0 comdat align 2 personality ptr @__gxx_personality_v0 {
  %6 = alloca ptr, align 8
  %7 = alloca ptr, align 8
  %8 = alloca ptr, align 8
  %9 = alloca i32, align 4
  %10 = alloca i64, align 8
  %11 = alloca ptr, align 8
  %12 = alloca i32, align 4
  store ptr %0, ptr %6, align 8, !tbaa !3
  store ptr %1, ptr %7, align 8, !tbaa !8
  store ptr %2, ptr %8, align 8, !tbaa !9
  store i32 %3, ptr %9, align 4, !tbaa !11
  store i64 %4, ptr %10, align 8, !tbaa !13
  %13 = load ptr, ptr %6, align 8
  %14 = load ptr, ptr %7, align 8
  %15 = getelementptr inbounds ptr, ptr %14, i64 1
  call void @_ZNSoC2EPSt15basic_streambufIcSt11char_traitsIcEE(ptr noundef nonnull align 8 dereferenceable(8) %13, ptr noundef %15, ptr noundef null)
  %16 = load ptr, ptr %14, align 8
  store ptr %16, ptr %13, align 8, !tbaa !15
  %17 = getelementptr inbounds ptr, ptr %14, i64 3
  %18 = load ptr, ptr %17, align 8
  %19 = load ptr, ptr %13, align 8, !tbaa !15
  %20 = getelementptr i8, ptr %19, i64 -24
  %21 = load i64, ptr %20, align 8
  %22 = getelementptr inbounds i8, ptr %13, i64 %21
  store ptr %18, ptr %22, align 8, !tbaa !15
  %23 = getelementptr inbounds nuw %"class.google::LogMessage::LogStream", ptr %13, i32 0, i32 1
  %24 = load ptr, ptr %8, align 8, !tbaa !9
  %25 = load i32, ptr %9, align 4, !tbaa !11
  invoke void @_ZN6google12base_logging12LogStreamBufC2EPci(ptr noundef nonnull align 8 dereferenceable(64) %23, ptr noundef %24, i32 noundef %25)
          to label %26 unwind label %37

26:                                               ; preds = %5
  %27 = getelementptr inbounds nuw %"class.google::LogMessage::LogStream", ptr %13, i32 0, i32 2
  %28 = load i64, ptr %10, align 8, !tbaa !13
  store i64 %28, ptr %27, align 8, !tbaa !17
  %29 = getelementptr inbounds nuw %"class.google::LogMessage::LogStream", ptr %13, i32 0, i32 3
  store ptr %13, ptr %29, align 8, !tbaa !24
  %30 = load ptr, ptr %13, align 8, !tbaa !15
  %31 = getelementptr i8, ptr %30, i64 -24
  %32 = load i64, ptr %31, align 8
  %33 = getelementptr inbounds i8, ptr %13, i64 %32
  %34 = getelementptr inbounds nuw %"class.google::LogMessage::LogStream", ptr %13, i32 0, i32 1
  %35 = invoke noundef ptr @_ZNSt9basic_iosIcSt11char_traitsIcEE5rdbufEPSt15basic_streambufIcS1_E(ptr noundef nonnull align 8 dereferenceable(264) %33, ptr noundef %34)
          to label %36 unwind label %41

36:                                               ; preds = %26
  ret void

37:                                               ; preds = %5
  %38 = landingpad { ptr, i32 }
          cleanup
  %39 = extractvalue { ptr, i32 } %38, 0
  store ptr %39, ptr %11, align 8
  %40 = extractvalue { ptr, i32 } %38, 1
  store i32 %40, ptr %12, align 4
  br label %45

41:                                               ; preds = %26
  %42 = landingpad { ptr, i32 }
          cleanup
  %43 = extractvalue { ptr, i32 } %42, 0
  store ptr %43, ptr %11, align 8
  %44 = extractvalue { ptr, i32 } %42, 1
  store i32 %44, ptr %12, align 4
  call void @_ZNSt15basic_streambufIcSt11char_traitsIcEED2Ev(ptr noundef nonnull align 8 dereferenceable(64) %23) #5
  br label %45

45:                                               ; preds = %41, %37
  %46 = getelementptr inbounds ptr, ptr %14, i64 1
  call void @_ZNSoD2Ev(ptr noundef nonnull align 8 dereferenceable(8) %13, ptr noundef %46) #5
  br label %47

47:                                               ; preds = %45
  %48 = load ptr, ptr %11, align 8
  %49 = load i32, ptr %12, align 4
  %50 = insertvalue { ptr, i32 } poison, ptr %48, 0
  %51 = insertvalue { ptr, i32 } %50, i32 %49, 1
  resume { ptr, i32 } %51
}

; Function Attrs: mustprogress uwtable
define void @_ZN6google10NullStreamC2EPKciRKNS_7logging8internal13CheckOpStringE(ptr noundef nonnull align 8 dereferenceable(91) %0, ptr noundef %1, ptr noundef %2, i32 noundef %3, ptr noundef nonnull align 8 dereferenceable(8) %4) unnamed_addr #0 align 2 {
  %6 = alloca ptr, align 8
  %7 = alloca ptr, align 8
  %8 = alloca ptr, align 8
  %9 = alloca i32, align 4
  %10 = alloca ptr, align 8
  store ptr %0, ptr %6, align 8, !tbaa !195
  store ptr %1, ptr %7, align 8, !tbaa !8
  store ptr %2, ptr %8, align 8, !tbaa !9
  store i32 %3, ptr %9, align 4, !tbaa !11
  store ptr %4, ptr %10, align 8, !tbaa !151
  %11 = load ptr, ptr %6, align 8
  %12 = load ptr, ptr %7, align 8
  %13 = load ptr, ptr %12, align 8
  store ptr %13, ptr %11, align 8, !tbaa !15
  %14 = getelementptr inbounds ptr, ptr %12, i64 5
  %15 = load ptr, ptr %14, align 8
  %16 = load ptr, ptr %11, align 8, !tbaa !15
  %17 = getelementptr i8, ptr %16, i64 -24
  %18 = load i64, ptr %17, align 8
  %19 = getelementptr inbounds i8, ptr %11, i64 %18
  store ptr %15, ptr %19, align 8, !tbaa !15
  %20 = getelementptr inbounds nuw %"class.google::NullStream", ptr %11, i32 0, i32 1
  %21 = getelementptr inbounds [3 x i8], ptr %20, i64 0, i64 0
  %22 = getelementptr inbounds ptr, ptr %12, i64 1
  call void @_ZN6google10LogMessage9LogStreamC2EPcil(ptr noundef nonnull align 8 dereferenceable(88) %11, ptr noundef %22, ptr noundef %21, i32 noundef 2, i64 noundef 0)
  %23 = load ptr, ptr %12, align 8
  store ptr %23, ptr %11, align 8, !tbaa !15
  %24 = getelementptr inbounds ptr, ptr %12, i64 5
  %25 = load ptr, ptr %24, align 8
  %26 = load ptr, ptr %11, align 8, !tbaa !15
  %27 = getelementptr i8, ptr %26, i64 -24
  %28 = load i64, ptr %27, align 8
  %29 = getelementptr inbounds i8, ptr %11, i64 %28
  store ptr %25, ptr %29, align 8, !tbaa !15
  ret void
}