; Function Attrs: mustprogress uwtable
define void @_ZN6google10NullStreamC2EPKciRKNS_7logging8internal13CheckOpStringE(ptr noundef nonnull align 8 dereferenceable(91) initializes((0, 8)) %0, ptr noundef readonly captures(none) %1, ptr noundef readnone captures(none) %2, i32 noundef %3, ptr noundef nonnull readnone align 8 captures(none) dereferenceable(8) %4) unnamed_addr #0 align 2 personality ptr @__gxx_personality_v0 {
  %6 = load ptr, ptr %1, align 8
  store ptr %6, ptr %0, align 8, !tbaa !3
  %7 = getelementptr inbounds nuw i8, ptr %1, i64 40
  %8 = load ptr, ptr %7, align 8
  %9 = getelementptr i8, ptr %6, i64 -24
  %10 = load i64, ptr %9, align 8
  %11 = getelementptr inbounds i8, ptr %0, i64 %10
  store ptr %8, ptr %11, align 8, !tbaa !3
  %12 = getelementptr inbounds nuw i8, ptr %0, i64 88
  %13 = getelementptr inbounds nuw i8, ptr %1, i64 8
  %14 = getelementptr inbounds nuw i8, ptr %1, i64 16
  %15 = load ptr, ptr %14, align 8
  store ptr %15, ptr %0, align 8, !tbaa !3
  %16 = getelementptr inbounds nuw i8, ptr %1, i64 24
  %17 = load ptr, ptr %16, align 8
  %18 = getelementptr i8, ptr %15, i64 -24
  %19 = load i64, ptr %18, align 8
  %20 = getelementptr inbounds i8, ptr %0, i64 %19
  store ptr %17, ptr %20, align 8, !tbaa !3
  %21 = load ptr, ptr %0, align 8, !tbaa !3
  %22 = getelementptr i8, ptr %21, i64 -24
  %23 = load i64, ptr %22, align 8
  %24 = getelementptr inbounds i8, ptr %0, i64 %23
  tail call void @_ZNSt9basic_iosIcSt11char_traitsIcEE4initEPSt15basic_streambufIcS1_E(ptr noundef nonnull align 8 dereferenceable(264) %24, ptr noundef null)
  %25 = load ptr, ptr %13, align 8
  store ptr %25, ptr %0, align 8, !tbaa !3
  %26 = getelementptr inbounds nuw i8, ptr %1, i64 32
  %27 = load ptr, ptr %26, align 8
  %28 = getelementptr i8, ptr %25, i64 -24
  %29 = load i64, ptr %28, align 8
  %30 = getelementptr inbounds i8, ptr %0, i64 %29
  store ptr %27, ptr %30, align 8, !tbaa !3
  %31 = getelementptr inbounds nuw i8, ptr %0, i64 8
  store ptr getelementptr inbounds nuw inrange(-16, 112) (i8, ptr @_ZTVSt15basic_streambufIcSt11char_traitsIcEE, i64 16), ptr %31, align 8, !tbaa !3
  %32 = getelementptr inbounds nuw i8, ptr %0, i64 16
  %33 = getelementptr inbounds nuw i8, ptr %0, i64 64
  tail call void @llvm.memset.p0.i64(ptr noundef nonnull align 8 dereferenceable(48) %32, i8 0, i64 48, i1 false)
  tail call void @_ZNSt6localeC1Ev(ptr noundef nonnull align 8 dereferenceable(8) %33) #49
  store ptr getelementptr inbounds nuw inrange(-16, 112) (i8, ptr @_ZTVN6google12base_logging12LogStreamBufE, i64 16), ptr %31, align 8, !tbaa !3
  %34 = getelementptr inbounds nuw i8, ptr %0, i64 48
  store ptr %12, ptr %34, align 8, !tbaa !6
  %35 = getelementptr inbounds nuw i8, ptr %0, i64 40
  store ptr %12, ptr %35, align 8, !tbaa !13
  %36 = getelementptr inbounds nuw i8, ptr %0, i64 56
  store ptr %12, ptr %36, align 8, !tbaa !14
  %37 = getelementptr inbounds nuw i8, ptr %0, i64 72
  store i64 0, ptr %37, align 8, !tbaa !15
  %38 = getelementptr inbounds nuw i8, ptr %0, i64 80
  store ptr %0, ptr %38, align 8, !tbaa !21
  %39 = load ptr, ptr %0, align 8, !tbaa !3
  %40 = getelementptr i8, ptr %39, i64 -24
  %41 = load i64, ptr %40, align 8
  %42 = getelementptr inbounds i8, ptr %0, i64 %41
  %43 = invoke noundef ptr @_ZNSt9basic_iosIcSt11char_traitsIcEE5rdbufEPSt15basic_streambufIcS1_E(ptr noundef nonnull align 8 dereferenceable(264) %42, ptr noundef nonnull %31)
          to label %_ZN6google10LogMessage9LogStreamC2EPcil.exit unwind label %44

44:                                               ; preds = %5
  %45 = landingpad { ptr, i32 }
          cleanup
  store ptr getelementptr inbounds nuw inrange(-16, 112) (i8, ptr @_ZTVSt15basic_streambufIcSt11char_traitsIcEE, i64 16), ptr %31, align 8, !tbaa !3
  tail call void @_ZNSt6localeD1Ev(ptr noundef nonnull align 8 dereferenceable(8) %33) #49
  resume { ptr, i32 } %45

_ZN6google10LogMessage9LogStreamC2EPcil.exit:     ; preds = %5
  %46 = load ptr, ptr %1, align 8
  store ptr %46, ptr %0, align 8, !tbaa !3
  %47 = load ptr, ptr %7, align 8
  %48 = getelementptr i8, ptr %46, i64 -24
  %49 = load i64, ptr %48, align 8
  %50 = getelementptr inbounds i8, ptr %0, i64 %49
  store ptr %47, ptr %50, align 8, !tbaa !3
  ret void
}